; Function Attrs: nounwind uwtable
define dso_local void @free_graph(ptr noundef captures(address_is_null) %0) local_unnamed_addr #0 {
  %.not = icmp eq ptr %0, null
  br i1 %.not, label %66, label %2

2:                                                ; preds = %1
  %3 = getelementptr inbounds nuw i8, ptr %0, i64 48
  %4 = getelementptr inbounds nuw i8, ptr %0, i64 64
  %5 = load i64, ptr %4, align 8, !tbaa !4
  %.not.i.i = icmp eq i64 %5, 0
  br i1 %.not.i.i, label %nodes_free.exit, label %.lr.ph.i.i

.lr.ph.i.i:                                       ; preds = %2
  %6 = getelementptr inbounds nuw i8, ptr %0, i64 56
  %7 = getelementptr inbounds nuw i8, ptr %0, i64 72
  br label %8

8:                                                ; preds = %free_node.exit.i.i, %.lr.ph.i.i
  %9 = phi i64 [ %5, %.lr.ph.i.i ], [ %19, %free_node.exit.i.i ]
  %.06.i.i = phi i64 [ 0, %.lr.ph.i.i ], [ %20, %free_node.exit.i.i ]
  %10 = load ptr, ptr %3, align 8, !tbaa !10
  %11 = load i64, ptr %6, align 8, !tbaa !11
  %12 = add i64 %11, %.06.i.i
  %13 = load i64, ptr %7, align 8, !tbaa !12
  %14 = urem i64 %12, %13
  %15 = getelementptr inbounds nuw ptr, ptr %10, i64 %14
  %16 = load ptr, ptr %15, align 8, !tbaa !13
  %.not.i.i.i = icmp eq ptr %16, null
  br i1 %.not.i.i.i, label %free_node.exit.i.i, label %17

17:                                               ; preds = %8
  %18 = getelementptr inbounds nuw i8, ptr %16, i64 8
  tail call fastcc void @attrs_free(ptr noundef nonnull %18)
  tail call void @free(ptr noundef nonnull %16) #20
  %.pre.i.i = load i64, ptr %4, align 8, !tbaa !4
  br label %free_node.exit.i.i

free_node.exit.i.i:                               ; preds = %17, %8
  %19 = phi i64 [ %9, %8 ], [ %.pre.i.i, %17 ]
  %20 = add nuw i64 %.06.i.i, 1
  %21 = icmp ult i64 %20, %19
  br i1 %21, label %8, label %nodes_free.exit, !llvm.loop !22

nodes_free.exit:                                  ; preds = %free_node.exit.i.i, %2
  %22 = getelementptr inbounds nuw i8, ptr %0, i64 56
  tail call void @llvm.memset.p0.i64(ptr noundef nonnull align 8 dereferenceable(16) %22, i8 0, i64 16, i1 false)
  %23 = load ptr, ptr %3, align 8, !tbaa !10
  tail call void @free(ptr noundef %23) #20
  tail call void @llvm.memset.p0.i64(ptr noundef nonnull align 8 dereferenceable(32) %3, i8 0, i64 32, i1 false)
  %24 = getelementptr inbounds nuw i8, ptr %0, i64 80
  %25 = getelementptr inbounds nuw i8, ptr %0, i64 96
  %26 = load i64, ptr %25, align 8, !tbaa !4
  %.not.i.i7 = icmp eq i64 %26, 0
  br i1 %.not.i.i7, label %edges_free.exit, label %.lr.ph.i.i8

.lr.ph.i.i8:                                      ; preds = %nodes_free.exit
  %27 = getelementptr inbounds nuw i8, ptr %0, i64 88
  %28 = getelementptr inbounds nuw i8, ptr %0, i64 104
  br label %29

29:                                               ; preds = %free_edge.exit.i.i, %.lr.ph.i.i8
  %30 = phi i64 [ %26, %.lr.ph.i.i8 ], [ %40, %free_edge.exit.i.i ]
  %.06.i.i9 = phi i64 [ 0, %.lr.ph.i.i8 ], [ %41, %free_edge.exit.i.i ]
  %31 = load ptr, ptr %24, align 8, !tbaa !10
  %32 = load i64, ptr %27, align 8, !tbaa !11
  %33 = add i64 %32, %.06.i.i9
  %34 = load i64, ptr %28, align 8, !tbaa !12
  %35 = urem i64 %33, %34
  %36 = getelementptr inbounds nuw ptr, ptr %31, i64 %35
  %37 = load ptr, ptr %36, align 8, !tbaa !13
  %.not.i.i.i10 = icmp eq ptr %37, null
  br i1 %.not.i.i.i10, label %free_edge.exit.i.i, label %38

38:                                               ; preds = %29
  %39 = getelementptr inbounds nuw i8, ptr %37, i64 16
  tail call fastcc void @attrs_free(ptr noundef nonnull %39)
  tail call void @free(ptr noundef nonnull %37) #20
  %.pre.i.i11 = load i64, ptr %25, align 8, !tbaa !4
  br label %free_edge.exit.i.i

free_edge.exit.i.i:                               ; preds = %38, %29
  %40 = phi i64 [ %30, %29 ], [ %.pre.i.i11, %38 ]
  %41 = add nuw i64 %.06.i.i9, 1
  %42 = icmp ult i64 %41, %40
  br i1 %42, label %29, label %edges_free.exit, !llvm.loop !23

edges_free.exit:                                  ; preds = %free_edge.exit.i.i, %nodes_free.exit
  %43 = getelementptr inbounds nuw i8, ptr %0, i64 88
  tail call void @llvm.memset.p0.i64(ptr noundef nonnull align 8 dereferenceable(16) %43, i8 0, i64 16, i1 false)
  %44 = load ptr, ptr %24, align 8, !tbaa !10
  tail call void @free(ptr noundef %44) #20
  tail call void @llvm.memset.p0.i64(ptr noundef nonnull align 8 dereferenceable(32) %24, i8 0, i64 32, i1 false)
  %45 = getelementptr inbounds nuw i8, ptr %0, i64 16
  tail call fastcc void @attrs_free(ptr noundef nonnull %45)
  %46 = getelementptr inbounds nuw i8, ptr %0, i64 112
  %47 = load ptr, ptr %46, align 8, !tbaa !24
  %48 = getelementptr inbounds nuw i8, ptr %47, i64 16
  %49 = load i64, ptr %48, align 8, !tbaa !28
  %.not13 = icmp eq i64 %49, 0
  br i1 %.not13, label %graphs_clear.exit, label %.lr.ph

.lr.ph:                                           ; preds = %edges_free.exit
  %50 = getelementptr inbounds nuw i8, ptr %47, i64 8
  %51 = getelementptr inbounds nuw i8, ptr %47, i64 24
  br label %52

52:                                               ; preds = %.lr.ph, %52
  %.0.i12 = phi i64 [ 0, %.lr.ph ], [ %60, %52 ]
  %53 = load ptr, ptr %47, align 8, !tbaa !31
  %54 = load i64, ptr %50, align 8, !tbaa !32
  %55 = add i64 %54, %.0.i12
  %56 = load i64, ptr %51, align 8, !tbaa !33
  %57 = urem i64 %55, %56
  %58 = getelementptr inbounds nuw ptr, ptr %53, i64 %57
  %59 = load ptr, ptr %58, align 8, !tbaa !34
  tail call void @free_graph(ptr noundef %59)
  %60 = add nuw i64 %.0.i12, 1
  %61 = load i64, ptr %48, align 8, !tbaa !28
  %62 = icmp ult i64 %60, %61
  br i1 %62, label %52, label %graphs_clear.exit, !llvm.loop !35

graphs_clear.exit:                                ; preds = %52, %edges_free.exit
  %63 = getelementptr inbounds nuw i8, ptr %47, i64 8
  tail call void @llvm.memset.p0.i64(ptr noundef nonnull align 8 dereferenceable(16) %63, i8 0, i64 16, i1 false)
  %64 = load ptr, ptr %47, align 8, !tbaa !31
  tail call void @free(ptr noundef %64) #20
  tail call void @llvm.memset.p0.i64(ptr noundef nonnull align 8 dereferenceable(32) %47, i8 0, i64 32, i1 false)
  %65 = load ptr, ptr %46, align 8, !tbaa !24
  tail call void @free(ptr noundef %65) #20
  tail call void @free(ptr noundef %0) #20
  br label %66

66:                                               ; preds = %1, %graphs_clear.exit
  ret void
}